; Function Attrs: mustprogress uwtable
define noundef zeroext i1 @_ZNK4base8FilePath16ReferencesParentEv(ptr noundef nonnull align 8 dereferenceable(32) %0) local_unnamed_addr #1 align 2 personality ptr @__gxx_personality_v0 {
  %2 = alloca %"class.std::vector", align 8
  call void @llvm.lifetime.start.p0(i64 24, ptr nonnull %2) #22
  call void @llvm.memset.p0.i64(ptr noundef nonnull align 8 dereferenceable(24) %2, i8 0, i64 24, i1 false)
  invoke void @_ZNK4base8FilePath13GetComponentsEPSt6vectorINSt7__cxx1112basic_stringIcSt11char_traitsIcESaIcEEESaIS7_EE(ptr noundef nonnull align 8 dereferenceable(32) %0, ptr noundef nonnull %2)
          to label %3 unwind label %12

3:                                                ; preds = %1
  %4 = load ptr, ptr %2, align 8, !tbaa !25
  %5 = getelementptr inbounds nuw i8, ptr %2, i64 8
  %6 = load ptr, ptr %5, align 8, !tbaa !25
  %.not15 = icmp eq ptr %4, %6
  br i1 %.not15, label %_ZSt8_DestroyIPNSt7__cxx1112basic_stringIcSt11char_traitsIcESaIcEEES5_EvT_S7_RSaIT0_E.exit.i, label %.lr.ph

.lr.ph:                                           ; preds = %3, %.critedge
  %.sroa.08.012 = phi ptr [ %14, %.critedge ], [ %4, %3 ]
  %7 = call noundef i64 @_ZNKSt7__cxx1112basic_stringIcSt11char_traitsIcESaIcEE17find_first_not_ofEPKcmm(ptr noundef nonnull align 8 dereferenceable(32) %.sroa.08.012, ptr noundef nonnull @.str, i64 noundef 0, i64 noundef 5) #22
  %8 = icmp eq i64 %7, -1
  br i1 %8, label %9, label %.critedge

9:                                                ; preds = %.lr.ph
  %10 = call noundef i64 @strlen(ptr noundef nonnull dereferenceable(1) @_ZN4base8FilePath16kParentDirectoryE) #22
  %11 = call noundef i64 @_ZNKSt7__cxx1112basic_stringIcSt11char_traitsIcESaIcEE4findEPKcmm(ptr noundef nonnull align 8 dereferenceable(32) %.sroa.08.012, ptr noundef nonnull @_ZN4base8FilePath16kParentDirectoryE, i64 noundef 0, i64 noundef %10) #22
  %.not = icmp eq i64 %11, -1
  br i1 %.not, label %.critedge, label %.._crit_edge.loopexit_crit_edge

.._crit_edge.loopexit_crit_edge:                  ; preds = %9
  %.pre17.pre = load ptr, ptr %5, align 8, !tbaa !20
  br label %._crit_edge

12:                                               ; preds = %1
  %13 = landingpad { ptr, i32 }
          cleanup
  call void @_ZNSt6vectorINSt7__cxx1112basic_stringIcSt11char_traitsIcESaIcEEESaIS5_EED2Ev(ptr noundef nonnull align 8 dereferenceable(24) %2) #22
  call void @llvm.lifetime.end.p0(i64 24, ptr nonnull %2) #22
  resume { ptr, i32 } %13

.critedge:                                        ; preds = %9, %.lr.ph
  %14 = getelementptr inbounds nuw i8, ptr %.sroa.08.012, i64 32
  %15 = load ptr, ptr %5, align 8, !tbaa !25
  %.not16 = icmp eq ptr %14, %15
  br i1 %.not16, label %._crit_edge, label %.lr.ph, !llvm.loop !53

._crit_edge:                                      ; preds = %.critedge, %.._crit_edge.loopexit_crit_edge
  %.pre17 = phi ptr [ %.pre17.pre, %.._crit_edge.loopexit_crit_edge ], [ %14, %.critedge ]
  %.lcssa.ph = phi i1 [ true, %.._crit_edge.loopexit_crit_edge ], [ false, %.critedge ]
  %.pre = load ptr, ptr %2, align 8, !tbaa !17
  %.not4.i.i.i.i = icmp eq ptr %.pre, %.pre17
  br i1 %.not4.i.i.i.i, label %_ZSt8_DestroyIPNSt7__cxx1112basic_stringIcSt11char_traitsIcESaIcEEES5_EvT_S7_RSaIT0_E.exit.i, label %.lr.ph.i.i.i.i

.lr.ph.i.i.i.i:                                   ; preds = %._crit_edge, %_ZSt8_DestroyINSt7__cxx1112basic_stringIcSt11char_traitsIcESaIcEEEEvPT_.exit.i.i.i.i
  %.05.i.i.i.i = phi ptr [ %22, %_ZSt8_DestroyINSt7__cxx1112basic_stringIcSt11char_traitsIcESaIcEEEEvPT_.exit.i.i.i.i ], [ %.pre, %._crit_edge ]
  %16 = load ptr, ptr %.05.i.i.i.i, align 8, !tbaa !13
  %17 = getelementptr inbounds nuw i8, ptr %.05.i.i.i.i, i64 16
  %18 = icmp eq ptr %16, %17
  br i1 %18, label %_ZNKSt7__cxx1112basic_stringIcSt11char_traitsIcESaIcEE11_M_is_localEv.exit.thread.i.i.i.i.i.i.i, label %_ZNKSt7__cxx1112basic_stringIcSt11char_traitsIcESaIcEE11_M_is_localEv.exit.i.i.i.i.i.i.i

_ZNKSt7__cxx1112basic_stringIcSt11char_traitsIcESaIcEE11_M_is_localEv.exit.thread.i.i.i.i.i.i.i: ; preds = %.lr.ph.i.i.i.i
  %19 = getelementptr inbounds nuw i8, ptr %.05.i.i.i.i, i64 8
  %20 = load i64, ptr %19, align 8, !tbaa !9
  %21 = icmp ult i64 %20, 16
  call void @llvm.assume(i1 %21)
  br label %_ZSt8_DestroyINSt7__cxx1112basic_stringIcSt11char_traitsIcESaIcEEEEvPT_.exit.i.i.i.i

_ZNKSt7__cxx1112basic_stringIcSt11char_traitsIcESaIcEE11_M_is_localEv.exit.i.i.i.i.i.i.i: ; preds = %.lr.ph.i.i.i.i
  call void @_ZdlPv(ptr noundef %16) #24
  br label %_ZSt8_DestroyINSt7__cxx1112basic_stringIcSt11char_traitsIcESaIcEEEEvPT_.exit.i.i.i.i

_ZSt8_DestroyINSt7__cxx1112basic_stringIcSt11char_traitsIcESaIcEEEEvPT_.exit.i.i.i.i: ; preds = %_ZNKSt7__cxx1112basic_stringIcSt11char_traitsIcESaIcEE11_M_is_localEv.exit.i.i.i.i.i.i.i, %_ZNKSt7__cxx1112basic_stringIcSt11char_traitsIcESaIcEE11_M_is_localEv.exit.thread.i.i.i.i.i.i.i
  %22 = getelementptr inbounds nuw i8, ptr %.05.i.i.i.i, i64 32
  %.not.i.i.i.i = icmp eq ptr %22, %.pre17
  br i1 %.not.i.i.i.i, label %_ZSt8_DestroyIPNSt7__cxx1112basic_stringIcSt11char_traitsIcESaIcEEES5_EvT_S7_RSaIT0_E.exitthread-pre-split.i, label %.lr.ph.i.i.i.i, !llvm.loop !21

_ZSt8_DestroyIPNSt7__cxx1112basic_stringIcSt11char_traitsIcESaIcEEES5_EvT_S7_RSaIT0_E.exitthread-pre-split.i: ; preds = %_ZSt8_DestroyINSt7__cxx1112basic_stringIcSt11char_traitsIcESaIcEEEEvPT_.exit.i.i.i.i
  %.pr.i = load ptr, ptr %2, align 8, !tbaa !17
  br label %_ZSt8_DestroyIPNSt7__cxx1112basic_stringIcSt11char_traitsIcESaIcEEES5_EvT_S7_RSaIT0_E.exit.i

_ZSt8_DestroyIPNSt7__cxx1112basic_stringIcSt11char_traitsIcESaIcEEES5_EvT_S7_RSaIT0_E.exit.i: ; preds = %3, %_ZSt8_DestroyIPNSt7__cxx1112basic_stringIcSt11char_traitsIcESaIcEEES5_EvT_S7_RSaIT0_E.exitthread-pre-split.i, %._crit_edge
  %.lcssa21 = phi i1 [ %.lcssa.ph, %_ZSt8_DestroyIPNSt7__cxx1112basic_stringIcSt11char_traitsIcESaIcEEES5_EvT_S7_RSaIT0_E.exitthread-pre-split.i ], [ %.lcssa.ph, %._crit_edge ], [ false, %3 ]
  %23 = phi ptr [ %.pr.i, %_ZSt8_DestroyIPNSt7__cxx1112basic_stringIcSt11char_traitsIcESaIcEEES5_EvT_S7_RSaIT0_E.exitthread-pre-split.i ], [ %.pre, %._crit_edge ], [ %4, %3 ]
  %.not.i.i.i = icmp eq ptr %23, null
  br i1 %.not.i.i.i, label %_ZNSt6vectorINSt7__cxx1112basic_stringIcSt11char_traitsIcESaIcEEESaIS5_EED2Ev.exit, label %24

24:                                               ; preds = %_ZSt8_DestroyIPNSt7__cxx1112basic_stringIcSt11char_traitsIcESaIcEEES5_EvT_S7_RSaIT0_E.exit.i
  call void @_ZdlPv(ptr noundef nonnull %23) #24
  br label %_ZNSt6vectorINSt7__cxx1112basic_stringIcSt11char_traitsIcESaIcEEESaIS5_EED2Ev.exit

_ZNSt6vectorINSt7__cxx1112basic_stringIcSt11char_traitsIcESaIcEEESaIS5_EED2Ev.exit: ; preds = %_ZSt8_DestroyIPNSt7__cxx1112basic_stringIcSt11char_traitsIcESaIcEEES5_EvT_S7_RSaIT0_E.exit.i, %24
  call void @llvm.lifetime.end.p0(i64 24, ptr nonnull %2) #22
  ret i1 %.lcssa21
}